; Function Attrs: nounwind uwtable
define dso_local range(i32 0, 2) i32 @get_common_dir(ptr noundef %0, ptr noundef %1) local_unnamed_addr #0 {
  %3 = tail call ptr @getenv(ptr noundef nonnull @.str.9) #25
  %.not = icmp eq ptr %3, null
  br i1 %.not, label %6, label %4

4:                                                ; preds = %2
  %5 = tail call i64 @strlen(ptr noundef nonnull dereferenceable(1) %3) #24
  tail call void @strbuf_add(ptr noundef %0, ptr noundef nonnull %3, i64 noundef %5) #25
  br label %8

6:                                                ; preds = %2
  %7 = tail call i32 @get_common_dir_noenv(ptr noundef %0, ptr noundef %1)
  br label %8

8:                                                ; preds = %6, %4
  %.0 = phi i32 [ 1, %4 ], [ %7, %6 ]
  ret i32 %.0
}